; ModuleID = 'source-C-CXX/57/64.c'
source_filename = "source-C-CXX/57/64.c"
target datalayout = "e-m:e-p270:32:32-p271:32:32-p272:64:64-i64:64-f80:128-n8:16:32:64-S128"
target triple = "x86_64-pc-linux-gnu"

@.str = private unnamed_addr constant [4 x i8] c"%d\0A\00", align 1
@str.3 = private unnamed_addr constant [2 x i8] c"0\00", align 1
@str.4 = private unnamed_addr constant [2 x i8] c"1\00", align 1

; Function Attrs: nounwind sspstrong uwtable
define dso_local i32 @main() local_unnamed_addr #0 {
  %1 = alloca i32, align 4
  %2 = alloca [100 x [100 x i8]], align 16
  %3 = bitcast i32* %1 to i8*
  call void @llvm.lifetime.start.p0i8(i64 4, i8* nonnull %3) #6
  %4 = call i32 (i8*, ...) @__isoc99_scanf(i8* getelementptr inbounds ([4 x i8], [4 x i8]* @.str, i64 0, i64 0), i32* nonnull %1)
  %5 = getelementptr inbounds [100 x [100 x i8]], [100 x [100 x i8]]* %2, i64 0, i64 0, i64 0
  call void @llvm.lifetime.start.p0i8(i64 10000, i8* nonnull %5) #6
  %6 = load i32, i32* %1, align 4, !tbaa !5
  %7 = icmp sgt i32 %6, 0
  br i1 %7, label %10, label %58

8:                                                ; preds = %10
  %9 = icmp sgt i32 %15, 0
  br i1 %9, label %18, label %58

10:                                               ; preds = %0, %10
  %11 = phi i64 [ %14, %10 ], [ 0, %0 ]
  %12 = getelementptr inbounds [100 x [100 x i8]], [100 x [100 x i8]]* %2, i64 0, i64 %11, i64 0
  %13 = call i32 (i8*, ...) bitcast (i32 (...)* @gets to i32 (i8*, ...)*)(i8* nonnull %12) #6
  %14 = add nuw nsw i64 %11, 1
  %15 = load i32, i32* %1, align 4, !tbaa !5
  %16 = sext i32 %15 to i64
  %17 = icmp slt i64 %14, %16
  br i1 %17, label %10, label %8, !llvm.loop !9

18:                                               ; preds = %8, %53
  %19 = phi i64 [ %54, %53 ], [ 0, %8 ]
  %20 = getelementptr inbounds [100 x [100 x i8]], [100 x [100 x i8]]* %2, i64 0, i64 %19, i64 0
  %21 = load i8, i8* %20, align 4, !tbaa !11
  %22 = icmp eq i8 %21, 95
  %23 = and i8 %21, -33
  %24 = add i8 %23, -65
  %25 = icmp ult i8 %24, 26
  %26 = or i1 %25, %22
  br i1 %26, label %27, label %51

27:                                               ; preds = %18, %41
  %28 = phi i8 [ %46, %41 ], [ %21, %18 ]
  %29 = phi i64 [ %44, %41 ], [ 0, %18 ]
  %30 = phi i32 [ %43, %41 ], [ 0, %18 ]
  %31 = phi i32 [ %42, %41 ], [ 0, %18 ]
  switch i8 %28, label %32 [
    i8 0, label %47
    i8 95, label %39
  ]

32:                                               ; preds = %27
  %33 = and i8 %28, -33
  %34 = add i8 %33, -65
  %35 = icmp ult i8 %34, 26
  %36 = add i8 %28, -48
  %37 = icmp ult i8 %36, 10
  %38 = select i1 %35, i1 true, i1 %37
  br i1 %38, label %39, label %41

39:                                               ; preds = %32, %27
  %40 = add nsw i32 %31, 1
  br label %41

41:                                               ; preds = %39, %32
  %42 = phi i32 [ %40, %39 ], [ %31, %32 ]
  %43 = add nuw nsw i32 %30, 1
  %44 = add nuw i64 %29, 1
  %45 = getelementptr inbounds [100 x [100 x i8]], [100 x [100 x i8]]* %2, i64 0, i64 %19, i64 %44
  %46 = load i8, i8* %45, align 1, !tbaa !11
  br label %27, !llvm.loop !12

47:                                               ; preds = %27
  %48 = icmp eq i32 %31, %30
  %49 = select i1 %48, i8* getelementptr inbounds ([2 x i8], [2 x i8]* @str.4, i64 0, i64 0), i8* getelementptr inbounds ([2 x i8], [2 x i8]* @str.3, i64 0, i64 0)
  %50 = call i32 @puts(i8* nonnull dereferenceable(1) %49) #6
  br label %53

51:                                               ; preds = %18
  %52 = call i32 @puts(i8* nonnull dereferenceable(1) getelementptr inbounds ([2 x i8], [2 x i8]* @str.3, i64 0, i64 0))
  br label %53

53:                                               ; preds = %47, %51
  %54 = add nuw nsw i64 %19, 1
  %55 = load i32, i32* %1, align 4, !tbaa !5
  %56 = sext i32 %55 to i64
  %57 = icmp slt i64 %54, %56
  br i1 %57, label %18, label %58, !llvm.loop !13

58:                                               ; preds = %53, %0, %8
  call void @llvm.lifetime.end.p0i8(i64 10000, i8* nonnull %5) #6
  call void @llvm.lifetime.end.p0i8(i64 4, i8* nonnull %3) #6
  ret i32 0
}

; Function Attrs: argmemonly mustprogress nofree nosync nounwind willreturn
declare void @llvm.lifetime.start.p0i8(i64 immarg, i8* nocapture) #1

; Function Attrs: nofree nounwind
declare noundef i32 @__isoc99_scanf(i8* nocapture noundef readonly, ...) local_unnamed_addr #2

declare i32 @gets(...) local_unnamed_addr #3

; Function Attrs: nofree nounwind sspstrong uwtable
define dso_local void @sort(i8* nocapture readonly %0) local_unnamed_addr #4 {
  br label %2

2:                                                ; preds = %17, %1
  %3 = phi i64 [ %20, %17 ], [ 0, %1 ]
  %4 = phi i32 [ %19, %17 ], [ 0, %1 ]
  %5 = phi i32 [ %18, %17 ], [ 0, %1 ]
  %6 = getelementptr inbounds i8, i8* %0, i64 %3
  %7 = load i8, i8* %6, align 1, !tbaa !11
  switch i8 %7, label %8 [
    i8 0, label %21
    i8 95, label %15
  ]

8:                                                ; preds = %2
  %9 = and i8 %7, -33
  %10 = add i8 %9, -65
  %11 = icmp ult i8 %10, 26
  %12 = add i8 %7, -48
  %13 = icmp ult i8 %12, 10
  %14 = select i1 %11, i1 true, i1 %13
  br i1 %14, label %15, label %17

15:                                               ; preds = %8, %2
  %16 = add nsw i32 %5, 1
  br label %17

17:                                               ; preds = %8, %15
  %18 = phi i32 [ %16, %15 ], [ %5, %8 ]
  %19 = add nuw nsw i32 %4, 1
  %20 = add nuw i64 %3, 1
  br label %2, !llvm.loop !12

21:                                               ; preds = %2
  %22 = icmp eq i32 %5, %4
  %23 = select i1 %22, i8* getelementptr inbounds ([2 x i8], [2 x i8]* @str.4, i64 0, i64 0), i8* getelementptr inbounds ([2 x i8], [2 x i8]* @str.3, i64 0, i64 0)
  %24 = tail call i32 @puts(i8* nonnull dereferenceable(1) %23)
  ret void
}

; Function Attrs: argmemonly mustprogress nofree nosync nounwind willreturn
declare void @llvm.lifetime.end.p0i8(i64 immarg, i8* nocapture) #1

; Function Attrs: nofree nounwind
declare noundef i32 @puts(i8* nocapture noundef readonly) local_unnamed_addr #5


!llvm.module.flags = !{!0, !1, !2, !3}
!llvm.ident = !{!4}

!0 = !{i32 1, !"wchar_size", i32 4}
!1 = !{i32 7, !"PIC Level", i32 2}
!2 = !{i32 7, !"PIE Level", i32 2}
!3 = !{i32 7, !"uwtable", i32 1}
!4 = !{!"clang version 13.0.0"}
!5 = !{!6, !6, i64 0}
!6 = !{!"int", !7, i64 0}
!7 = !{!"omnipotent char", !8, i64 0}
!8 = !{!"Simple C/C++ TBAA"}
!9 = distinct !{!9, !10}
!10 = !{!"llvm.loop.mustprogress"}
!11 = !{!7, !7, i64 0}
!12 = distinct !{!12, !10}
!13 = distinct !{!13, !10}
